target datalayout = "e-m:e-p270:32:32-p271:32:32-p272:64:64-i64:64-i128:128-f80:128-n8:16:32:64-S128"
target triple = "x86_64-pc-linux-gnu"

%struct.Agobj_s = type { %struct.Agtag_s, ptr }
%struct.Agtag_s = type { i32, i64 }
%struct.Agnodeinfo_t = type { %struct.Agrec_s, ptr, ptr, %struct.pointf_s, double, double, %struct.boxf, double, double, double, double, double, ptr, ptr, ptr, i8, i8, i8, i8, i32, i32, i32, ptr, double, i8, i8, ptr, ptr, i8, i64, i8, i8, i8, ptr, ptr, %struct.elist, %struct.elist, %struct.elist, %struct.elist, %struct.elist, ptr, i32, ptr, i32, i32, double, %struct.elist, %struct.elist, %struct.elist, %struct.elist, ptr, i32, i32, i32, [1 x double] }
%struct.Agrec_s = type { ptr, ptr }
%struct.pointf_s = type { double, double }
%struct.boxf = type { %struct.pointf_s, %struct.pointf_s }
%struct.elist = type { ptr, i64 }

; Function Attrs: nounwind uwtable
define i32 @initLayout(i32 noundef %0, i32 noundef %1, ptr noundef %2, ptr noundef %3) #0 {
  %5 = alloca i32, align 4
  %6 = alloca i32, align 4
  %7 = alloca ptr, align 8
  %8 = alloca ptr, align 8
  %9 = alloca ptr, align 8
  %10 = alloca ptr, align 8
  %11 = alloca ptr, align 8
  %12 = alloca ptr, align 8
  %13 = alloca i32, align 4
  %14 = alloca i32, align 4
  %15 = alloca i32, align 4
  store i32 %0, ptr %5, align 4, !tbaa !3
  store i32 %1, ptr %6, align 4, !tbaa !3
  store ptr %2, ptr %7, align 8, !tbaa !7
  store ptr %3, ptr %8, align 8, !tbaa !10
  call void @llvm.lifetime.start.p0(i64 8, ptr %9) #10
  call void @llvm.lifetime.start.p0(i64 8, ptr %10) #10
  call void @llvm.lifetime.start.p0(i64 8, ptr %11) #10
  call void @llvm.lifetime.start.p0(i64 8, ptr %12) #10
  call void @llvm.lifetime.start.p0(i64 4, ptr %13) #10
  call void @llvm.lifetime.start.p0(i64 4, ptr %14) #10
  call void @llvm.lifetime.start.p0(i64 4, ptr %15) #10
  store i32 0, ptr %15, align 4, !tbaa !3
  %16 = load ptr, ptr %7, align 8, !tbaa !7
  %17 = getelementptr inbounds ptr, ptr %16, i64 0
  %18 = load ptr, ptr %17, align 8, !tbaa !12
  store ptr %18, ptr %10, align 8, !tbaa !12
  %19 = load ptr, ptr %7, align 8, !tbaa !7
  %20 = getelementptr inbounds ptr, ptr %19, i64 1
  %21 = load ptr, ptr %20, align 8, !tbaa !12
  store ptr %21, ptr %11, align 8, !tbaa !12
  store i32 0, ptr %13, align 4, !tbaa !3
  br label %22

22:                                               ; preds = %118, %4
  %23 = load i32, ptr %13, align 4, !tbaa !3
  %24 = load i32, ptr %5, align 4, !tbaa !3
  %25 = icmp slt i32 %23, %24
  br i1 %25, label %26, label %121

26:                                               ; preds = %22
  %27 = load ptr, ptr %8, align 8, !tbaa !10
  %28 = load i32, ptr %13, align 4, !tbaa !3
  %29 = sext i32 %28 to i64
  %30 = getelementptr inbounds ptr, ptr %27, i64 %29
  %31 = load ptr, ptr %30, align 8, !tbaa !14
  store ptr %31, ptr %9, align 8, !tbaa !14
  %32 = load ptr, ptr %9, align 8, !tbaa !14
  %33 = getelementptr inbounds nuw %struct.Agobj_s, ptr %32, i32 0, i32 1
  %34 = load ptr, ptr %33, align 8, !tbaa !16
  %35 = getelementptr inbounds nuw %struct.Agnodeinfo_t, ptr %34, i32 0, i32 18
  %36 = load i8, ptr %35, align 1, !tbaa !21
  %37 = zext i8 %36 to i32
  %38 = icmp sgt i32 %37, 0
  br i1 %38, label %39, label %88

39:                                               ; preds = %26
  %40 = load ptr, ptr %9, align 8, !tbaa !14
  %41 = getelementptr inbounds nuw %struct.Agobj_s, ptr %40, i32 0, i32 1
  %42 = load ptr, ptr %41, align 8, !tbaa !16
  %43 = getelementptr inbounds nuw %struct.Agnodeinfo_t, ptr %42, i32 0, i32 22
  %44 = load ptr, ptr %43, align 8, !tbaa !35
  store ptr %44, ptr %12, align 8, !tbaa !12
  %45 = load ptr, ptr %12, align 8, !tbaa !12
  %46 = getelementptr inbounds nuw double, ptr %45, i32 1
  store ptr %46, ptr %12, align 8, !tbaa !12
  %47 = load double, ptr %45, align 8, !tbaa !36
  %48 = load ptr, ptr %10, align 8, !tbaa !12
  %49 = getelementptr inbounds nuw double, ptr %48, i32 1
  store ptr %49, ptr %10, align 8, !tbaa !12
  store double %47, ptr %48, align 8, !tbaa !36
  %50 = load ptr, ptr %12, align 8, !tbaa !12
  %51 = getelementptr inbounds nuw double, ptr %50, i32 1
  store ptr %51, ptr %12, align 8, !tbaa !12
  %52 = load double, ptr %50, align 8, !tbaa !36
  %53 = load ptr, ptr %11, align 8, !tbaa !12
  %54 = getelementptr inbounds nuw double, ptr %53, i32 1
  store ptr %54, ptr %11, align 8, !tbaa !12
  store double %52, ptr %53, align 8, !tbaa !36
  %55 = load i32, ptr %6, align 4, !tbaa !3
  %56 = icmp sgt i32 %55, 2
  br i1 %56, label %57, label %78

57:                                               ; preds = %39
  store i32 2, ptr %14, align 4, !tbaa !3
  br label %58

58:                                               ; preds = %74, %57
  %59 = load i32, ptr %14, align 4, !tbaa !3
  %60 = load i32, ptr %6, align 4, !tbaa !3
  %61 = icmp slt i32 %59, %60
  br i1 %61, label %62, label %77

62:                                               ; preds = %58
  %63 = load ptr, ptr %12, align 8, !tbaa !12
  %64 = getelementptr inbounds nuw double, ptr %63, i32 1
  store ptr %64, ptr %12, align 8, !tbaa !12
  %65 = load double, ptr %63, align 8, !tbaa !36
  %66 = load ptr, ptr %7, align 8, !tbaa !7
  %67 = load i32, ptr %14, align 4, !tbaa !3
  %68 = sext i32 %67 to i64
  %69 = getelementptr inbounds ptr, ptr %66, i64 %68
  %70 = load ptr, ptr %69, align 8, !tbaa !12
  %71 = load i32, ptr %13, align 4, !tbaa !3
  %72 = sext i32 %71 to i64
  %73 = getelementptr inbounds double, ptr %70, i64 %72
  store double %65, ptr %73, align 8, !tbaa !36
  br label %74

74:                                               ; preds = %62
  %75 = load i32, ptr %14, align 4, !tbaa !3
  %76 = add nsw i32 %75, 1
  store i32 %76, ptr %14, align 4, !tbaa !3
  br label %58, !llvm.loop !37

77:                                               ; preds = %58
  br label %78

78:                                               ; preds = %77, %39
  %79 = load ptr, ptr %9, align 8, !tbaa !14
  %80 = getelementptr inbounds nuw %struct.Agobj_s, ptr %79, i32 0, i32 1
  %81 = load ptr, ptr %80, align 8, !tbaa !16
  %82 = getelementptr inbounds nuw %struct.Agnodeinfo_t, ptr %81, i32 0, i32 18
  %83 = load i8, ptr %82, align 1, !tbaa !21
  %84 = zext i8 %83 to i32
  %85 = icmp sgt i32 %84, 1
  br i1 %85, label %86, label %87

86:                                               ; preds = %78
  store i32 1, ptr %15, align 4, !tbaa !3
  br label %87

87:                                               ; preds = %86, %78
  br label %117

88:                                               ; preds = %26
  %89 = call double @drand48() #10
  %90 = load ptr, ptr %10, align 8, !tbaa !12
  %91 = getelementptr inbounds nuw double, ptr %90, i32 1
  store ptr %91, ptr %10, align 8, !tbaa !12
  store double %89, ptr %90, align 8, !tbaa !36
  %92 = call double @drand48() #10
  %93 = load ptr, ptr %11, align 8, !tbaa !12
  %94 = getelementptr inbounds nuw double, ptr %93, i32 1
  store ptr %94, ptr %11, align 8, !tbaa !12
  store double %92, ptr %93, align 8, !tbaa !36
  %95 = load i32, ptr %6, align 4, !tbaa !3
  %96 = icmp sgt i32 %95, 2
  br i1 %96, label %97, label %116

97:                                               ; preds = %88
  store i32 2, ptr %14, align 4, !tbaa !3
  br label %98

98:                                               ; preds = %112, %97
  %99 = load i32, ptr %14, align 4, !tbaa !3
  %100 = load i32, ptr %6, align 4, !tbaa !3
  %101 = icmp slt i32 %99, %100
  br i1 %101, label %102, label %115

102:                                              ; preds = %98
  %103 = call double @drand48() #10
  %104 = load ptr, ptr %7, align 8, !tbaa !7
  %105 = load i32, ptr %14, align 4, !tbaa !3
  %106 = sext i32 %105 to i64
  %107 = getelementptr inbounds ptr, ptr %104, i64 %106
  %108 = load ptr, ptr %107, align 8, !tbaa !12
  %109 = load i32, ptr %13, align 4, !tbaa !3
  %110 = sext i32 %109 to i64
  %111 = getelementptr inbounds double, ptr %108, i64 %110
  store double %103, ptr %111, align 8, !tbaa !36
  br label %112

112:                                              ; preds = %102
  %113 = load i32, ptr %14, align 4, !tbaa !3
  %114 = add nsw i32 %113, 1
  store i32 %114, ptr %14, align 4, !tbaa !3
  br label %98, !llvm.loop !39

115:                                              ; preds = %98
  br label %116

116:                                              ; preds = %115, %88
  br label %117

117:                                              ; preds = %116, %87
  br label %118

118:                                              ; preds = %117
  %119 = load i32, ptr %13, align 4, !tbaa !3
  %120 = add nsw i32 %119, 1
  store i32 %120, ptr %13, align 4, !tbaa !3
  br label %22, !llvm.loop !40

121:                                              ; preds = %22
  store i32 0, ptr %14, align 4, !tbaa !3
  br label %122

122:                                              ; preds = %133, %121
  %123 = load i32, ptr %14, align 4, !tbaa !3
  %124 = load i32, ptr %6, align 4, !tbaa !3
  %125 = icmp slt i32 %123, %124
  br i1 %125, label %126, label %136

126:                                              ; preds = %122
  %127 = load i32, ptr %5, align 4, !tbaa !3
  %128 = load ptr, ptr %7, align 8, !tbaa !7
  %129 = load i32, ptr %14, align 4, !tbaa !3
  %130 = sext i32 %129 to i64
  %131 = getelementptr inbounds ptr, ptr %128, i64 %130
  %132 = load ptr, ptr %131, align 8, !tbaa !12
  call void @orthog1(i32 noundef %127, ptr noundef %132)
  br label %133

133:                                              ; preds = %126
  %134 = load i32, ptr %14, align 4, !tbaa !3
  %135 = add nsw i32 %134, 1
  store i32 %135, ptr %14, align 4, !tbaa !3
  br label %122, !llvm.loop !41

136:                                              ; preds = %122
  %137 = load i32, ptr %15, align 4, !tbaa !3
  call void @llvm.lifetime.end.p0(i64 4, ptr %15) #10
  call void @llvm.lifetime.end.p0(i64 4, ptr %14) #10
  call void @llvm.lifetime.end.p0(i64 4, ptr %13) #10
  call void @llvm.lifetime.end.p0(i64 8, ptr %12) #10
  call void @llvm.lifetime.end.p0(i64 8, ptr %11) #10
  call void @llvm.lifetime.end.p0(i64 8, ptr %10) #10
  call void @llvm.lifetime.end.p0(i64 8, ptr %9) #10
  ret i32 %137
}