; Function Attrs: nounwind uwtable
define range(i32 0, 2) i32 @initLayout(i32 noundef %0, i32 noundef %1, ptr noundef readonly captures(none) %2, ptr noundef readonly captures(none) %3) local_unnamed_addr #0 {
  %5 = icmp sgt i32 %0, 0
  br i1 %5, label %.lr.ph, label %.preheader

.lr.ph:                                           ; preds = %4
  %6 = getelementptr inbounds nuw i8, ptr %2, i64 8
  %7 = load ptr, ptr %6, align 8, !tbaa !3
  %8 = load ptr, ptr %2, align 8, !tbaa !3
  %9 = icmp sgt i32 %1, 2
  %wide.trip.count90 = zext nneg i32 %0 to i64
  br i1 %9, label %.lr.ph.split.us.preheader, label %.lr.ph.split.split

.lr.ph.split.us.preheader:                        ; preds = %.lr.ph
  %wide.trip.count80 = zext nneg i32 %1 to i64
  %wide.trip.count85 = zext nneg i32 %1 to i64
  br label %.lr.ph.split.us

.lr.ph.split.us:                                  ; preds = %.lr.ph.split.us.preheader, %.loopexit.us
  %indvars.iv87 = phi i64 [ 0, %.lr.ph.split.us.preheader ], [ %indvars.iv.next88, %.loopexit.us ]
  %.057.us = phi i32 [ 0, %.lr.ph.split.us.preheader ], [ %.1.us, %.loopexit.us ]
  %.04155.us = phi ptr [ %7, %.lr.ph.split.us.preheader ], [ %.142.us, %.loopexit.us ]
  %.04354.us = phi ptr [ %8, %.lr.ph.split.us.preheader ], [ %.144.us, %.loopexit.us ]
  %10 = getelementptr inbounds nuw ptr, ptr %3, i64 %indvars.iv87
  %11 = load ptr, ptr %10, align 8, !tbaa !8
  %12 = getelementptr inbounds nuw i8, ptr %11, i64 16
  %13 = load ptr, ptr %12, align 8, !tbaa !10
  %14 = getelementptr inbounds nuw i8, ptr %13, i64 163
  %15 = load i8, ptr %14, align 1, !tbaa !16
  %.not.us = icmp eq i8 %15, 0
  br i1 %.not.us, label %.preheader49.us.preheader, label %16

16:                                               ; preds = %.lr.ph.split.us
  %17 = getelementptr inbounds nuw i8, ptr %13, i64 176
  %18 = load ptr, ptr %17, align 8, !tbaa !30
  %19 = getelementptr inbounds nuw i8, ptr %18, i64 8
  %20 = load double, ptr %18, align 8, !tbaa !31
  store double %20, ptr %.04354.us, align 8, !tbaa !31
  %21 = load double, ptr %19, align 8, !tbaa !31
  store double %21, ptr %.04155.us, align 8, !tbaa !31
  %22 = getelementptr inbounds nuw i8, ptr %18, i64 16
  br label %23

23:                                               ; preds = %23, %16
  %indvars.iv77 = phi i64 [ %indvars.iv.next78, %23 ], [ 2, %16 ]
  %.04051.us = phi ptr [ %24, %23 ], [ %22, %16 ]
  %24 = getelementptr inbounds nuw i8, ptr %.04051.us, i64 8
  %25 = load double, ptr %.04051.us, align 8, !tbaa !31
  %26 = getelementptr inbounds nuw ptr, ptr %2, i64 %indvars.iv77
  %27 = load ptr, ptr %26, align 8, !tbaa !3
  %28 = getelementptr inbounds nuw double, ptr %27, i64 %indvars.iv87
  store double %25, ptr %28, align 8, !tbaa !31
  %indvars.iv.next78 = add nuw nsw i64 %indvars.iv77, 1
  %exitcond81.not = icmp eq i64 %indvars.iv.next78, %wide.trip.count80
  br i1 %exitcond81.not, label %.loopexit50.us, label %23, !llvm.loop !32

.preheader49.us.preheader:                        ; preds = %.lr.ph.split.us
  %29 = tail call double @drand48() #16
  store double %29, ptr %.04354.us, align 8, !tbaa !31
  %30 = tail call double @drand48() #16
  store double %30, ptr %.04155.us, align 8, !tbaa !31
  br label %.preheader49.us

.loopexit.us:                                     ; preds = %.preheader49.us, %.loopexit50.us
  %.1.us = phi i32 [ %spec.select.us, %.loopexit50.us ], [ %.057.us, %.preheader49.us ]
  %.142.us = getelementptr inbounds nuw i8, ptr %.04155.us, i64 8
  %.144.us = getelementptr inbounds nuw i8, ptr %.04354.us, i64 8
  %indvars.iv.next88 = add nuw nsw i64 %indvars.iv87, 1
  %exitcond91.not = icmp eq i64 %indvars.iv.next88, %wide.trip.count90
  br i1 %exitcond91.not, label %.preheader, label %.lr.ph.split.us, !llvm.loop !34

.preheader49.us:                                  ; preds = %.preheader49.us.preheader, %.preheader49.us
  %indvars.iv82 = phi i64 [ 2, %.preheader49.us.preheader ], [ %indvars.iv.next83, %.preheader49.us ]
  %31 = tail call double @drand48() #16
  %32 = getelementptr inbounds nuw ptr, ptr %2, i64 %indvars.iv82
  %33 = load ptr, ptr %32, align 8, !tbaa !3
  %34 = getelementptr inbounds nuw double, ptr %33, i64 %indvars.iv87
  store double %31, ptr %34, align 8, !tbaa !31
  %indvars.iv.next83 = add nuw nsw i64 %indvars.iv82, 1
  %exitcond86.not = icmp eq i64 %indvars.iv.next83, %wide.trip.count85
  br i1 %exitcond86.not, label %.loopexit.us, label %.preheader49.us, !llvm.loop !35

.loopexit50.us:                                   ; preds = %23
  %.not48.us = icmp eq i8 %15, 1
  %spec.select.us = select i1 %.not48.us, i32 %.057.us, i32 1
  br label %.loopexit.us

.preheader:                                       ; preds = %51, %.loopexit.us, %4
  %.0.lcssa = phi i32 [ 0, %4 ], [ %.1.us, %.loopexit.us ], [ %.1, %51 ]
  %35 = icmp sgt i32 %1, 0
  br i1 %35, label %.lr.ph74.preheader, label %._crit_edge

.lr.ph74.preheader:                               ; preds = %.preheader
  %wide.trip.count95 = zext nneg i32 %1 to i64
  br label %.lr.ph74

.lr.ph.split.split:                               ; preds = %.lr.ph, %51
  %indvars.iv = phi i64 [ %indvars.iv.next, %51 ], [ 0, %.lr.ph ]
  %.057 = phi i32 [ %.1, %51 ], [ 0, %.lr.ph ]
  %.04155 = phi ptr [ %.142, %51 ], [ %7, %.lr.ph ]
  %.04354 = phi ptr [ %.144, %51 ], [ %8, %.lr.ph ]
  %36 = getelementptr inbounds nuw ptr, ptr %3, i64 %indvars.iv
  %37 = load ptr, ptr %36, align 8, !tbaa !8
  %38 = getelementptr inbounds nuw i8, ptr %37, i64 16
  %39 = load ptr, ptr %38, align 8, !tbaa !10
  %40 = getelementptr inbounds nuw i8, ptr %39, i64 163
  %41 = load i8, ptr %40, align 1, !tbaa !16
  %.not = icmp eq i8 %41, 0
  br i1 %.not, label %48, label %42

42:                                               ; preds = %.lr.ph.split.split
  %43 = getelementptr inbounds nuw i8, ptr %39, i64 176
  %44 = load ptr, ptr %43, align 8, !tbaa !30
  %45 = getelementptr inbounds nuw i8, ptr %44, i64 8
  %46 = load double, ptr %44, align 8, !tbaa !31
  store double %46, ptr %.04354, align 8, !tbaa !31
  %47 = load double, ptr %45, align 8, !tbaa !31
  %.not48 = icmp eq i8 %41, 1
  %spec.select = select i1 %.not48, i32 %.057, i32 1
  br label %51

48:                                               ; preds = %.lr.ph.split.split
  %49 = tail call double @drand48() #16
  store double %49, ptr %.04354, align 8, !tbaa !31
  %50 = tail call double @drand48() #16
  br label %51

51:                                               ; preds = %48, %42
  %.sink = phi double [ %50, %48 ], [ %47, %42 ]
  %.1 = phi i32 [ %.057, %48 ], [ %spec.select, %42 ]
  store double %.sink, ptr %.04155, align 8, !tbaa !31
  %.142 = getelementptr inbounds nuw i8, ptr %.04155, i64 8
  %.144 = getelementptr inbounds nuw i8, ptr %.04354, i64 8
  %indvars.iv.next = add nuw nsw i64 %indvars.iv, 1
  %exitcond.not = icmp eq i64 %indvars.iv.next, %wide.trip.count90
  br i1 %exitcond.not, label %.preheader, label %.lr.ph.split.split, !llvm.loop !34

.lr.ph74:                                         ; preds = %.lr.ph74.preheader, %.lr.ph74
  %indvars.iv92 = phi i64 [ 0, %.lr.ph74.preheader ], [ %indvars.iv.next93, %.lr.ph74 ]
  %52 = getelementptr inbounds nuw ptr, ptr %2, i64 %indvars.iv92
  %53 = load ptr, ptr %52, align 8, !tbaa !3
  tail call void @orthog1(i32 noundef %0, ptr noundef %53) #16
  %indvars.iv.next93 = add nuw nsw i64 %indvars.iv92, 1
  %exitcond96.not = icmp eq i64 %indvars.iv.next93, %wide.trip.count95
  br i1 %exitcond96.not, label %._crit_edge, label %.lr.ph74, !llvm.loop !36

._crit_edge:                                      ; preds = %.lr.ph74, %.preheader
  ret i32 %.0.lcssa
}